; Function Attrs: inlinehint mustprogress nounwind uwtable
define internal void @_ZN3gmx15analysismodules12_GLOBAL__N_112PairDistanceD2Ev(ptr noundef nonnull align 8 dereferenceable(152) initializes((0, 8)) %0) unnamed_addr #5 align 2 personality ptr @__gxx_personality_v0 {
  store ptr getelementptr inbounds nuw inrange(-16, 88) (i8, ptr @_ZTVN3gmx15analysismodules12_GLOBAL__N_112PairDistanceE, i64 16), ptr %0, align 8, !tbaa !4
  %2 = getelementptr inbounds nuw i8, ptr %0, i64 144
  tail call void @_ZN3gmx20AnalysisNeighborhoodD1Ev(ptr noundef nonnull align 8 dereferenceable(8) %2) #24
  %3 = getelementptr inbounds nuw i8, ptr %0, i64 72
  %4 = load ptr, ptr %3, align 8, !tbaa !16
  %5 = getelementptr inbounds nuw i8, ptr %0, i64 88
  %6 = icmp eq ptr %4, %5
  br i1 %6, label %_ZNKSt7__cxx1112basic_stringIcSt11char_traitsIcESaIcEE11_M_is_localEv.exit.thread.i.i, label %_ZNKSt7__cxx1112basic_stringIcSt11char_traitsIcESaIcEE11_M_is_localEv.exit.i.i

_ZNKSt7__cxx1112basic_stringIcSt11char_traitsIcESaIcEE11_M_is_localEv.exit.thread.i.i: ; preds = %1
  %7 = getelementptr inbounds nuw i8, ptr %0, i64 80
  %8 = load i64, ptr %7, align 8, !tbaa !12
  %9 = icmp ult i64 %8, 16
  tail call void @llvm.assume(i1 %9)
  br label %_ZNSt7__cxx1112basic_stringIcSt11char_traitsIcESaIcEED2Ev.exit

_ZNKSt7__cxx1112basic_stringIcSt11char_traitsIcESaIcEE11_M_is_localEv.exit.i.i: ; preds = %1
  %10 = load i64, ptr %5, align 8, !tbaa !15
  %11 = add i64 %10, 1
  tail call void @_ZdlPvm(ptr noundef %4, i64 noundef %11) #25
  br label %_ZNSt7__cxx1112basic_stringIcSt11char_traitsIcESaIcEED2Ev.exit

_ZNSt7__cxx1112basic_stringIcSt11char_traitsIcESaIcEED2Ev.exit: ; preds = %_ZNKSt7__cxx1112basic_stringIcSt11char_traitsIcESaIcEE11_M_is_localEv.exit.thread.i.i, %_ZNKSt7__cxx1112basic_stringIcSt11char_traitsIcESaIcEE11_M_is_localEv.exit.i.i
  %12 = getelementptr inbounds nuw i8, ptr %0, i64 48
  %13 = load ptr, ptr %12, align 8, !tbaa !17
  %.not.i.i.i = icmp eq ptr %13, null
  br i1 %.not.i.i.i, label %_ZNSt6vectorIN3gmx9SelectionESaIS1_EED2Ev.exit, label %14

14:                                               ; preds = %_ZNSt7__cxx1112basic_stringIcSt11char_traitsIcESaIcEED2Ev.exit
  %15 = getelementptr inbounds nuw i8, ptr %0, i64 64
  %16 = load ptr, ptr %15, align 8, !tbaa !20
  %17 = ptrtoint ptr %16 to i64
  %18 = ptrtoint ptr %13 to i64
  %19 = sub i64 %17, %18
  tail call void @_ZdlPvm(ptr noundef nonnull %13, i64 noundef %19) #25
  br label %_ZNSt6vectorIN3gmx9SelectionESaIS1_EED2Ev.exit

_ZNSt6vectorIN3gmx9SelectionESaIS1_EED2Ev.exit:   ; preds = %_ZNSt7__cxx1112basic_stringIcSt11char_traitsIcESaIcEED2Ev.exit, %14
  %20 = getelementptr inbounds nuw i8, ptr %0, i64 16
  tail call void @_ZN3gmx12AnalysisDataD1Ev(ptr noundef nonnull align 8 dereferenceable(24) %20) #24
  tail call void @_ZN3gmx24TrajectoryAnalysisModuleD2Ev(ptr noundef nonnull align 8 dereferenceable(16) %0) #24
  ret void
}